target datalayout = "e-m:e-p270:32:32-p271:32:32-p272:64:64-i64:64-i128:128-f80:128-n8:16:32:64-S128"
target triple = "x86_64-pc-linux-gnu"

%struct.NormalizeContext = type { ptr, [4 x i8], [4 x i8], i32, float, float, [4 x i8], i32, [4 x i32], [4 x i32], i32, i32, i32, i32, [3 x %struct.NormalizeHistory], [3 x %struct.NormalizeHistory], ptr, [3 x [65536 x i16]], ptr, ptr }
%struct.NormalizeHistory = type { ptr, i64 }
%struct.AVChannelLayout = type { i32, i32, %union.anon.1, ptr }
%union.anon.1 = type { i64 }
%struct.AVRational = type { i32, i32 }
%struct.AVFrame = type { [8 x ptr], [8 x i32], ptr, i32, i32, i32, i32, i32, %struct.AVRational, i64, i64, %struct.AVRational, i32, ptr, i32, i32, [8 x ptr], ptr, i32, ptr, i32, i32, i32, i32, i32, i32, i32, i64, ptr, i32, ptr, ptr, i64, i64, i64, i64, ptr, %struct.AVChannelLayout, i64 }

; Function Attrs: nounwind uwtable
define internal void @process(ptr noundef %0, ptr noundef %1, ptr noundef %2) #2 {
  %4 = alloca ptr, align 8
  %5 = alloca ptr, align 8
  %6 = alloca ptr, align 8
  %7 = alloca i32, align 4
  %8 = alloca i32, align 4
  %9 = alloca ptr, align 8
  %10 = alloca ptr, align 8
  %11 = alloca i32, align 4
  %12 = alloca i32, align 4
  store ptr %0, ptr %4, align 8, !tbaa !22
  store ptr %1, ptr %5, align 8, !tbaa !26
  store ptr %2, ptr %6, align 8, !tbaa !26
  call void @llvm.lifetime.start.p0(i64 4, ptr %7) #6
  store i32 0, ptr %7, align 4, !tbaa !38
  br label %13

13:                                               ; preds = %127, %3
  %14 = load i32, ptr %7, align 4, !tbaa !38
  %15 = load ptr, ptr %5, align 8, !tbaa !26
  %16 = getelementptr inbounds nuw %struct.AVFrame, ptr %15, i32 0, i32 4
  %17 = load i32, ptr %16, align 4, !tbaa !85
  %18 = icmp slt i32 %14, %17
  br i1 %18, label %20, label %19

19:                                               ; preds = %13
  store i32 2, ptr %8, align 4
  call void @llvm.lifetime.end.p0(i64 4, ptr %7) #6
  br label %130

20:                                               ; preds = %13
  call void @llvm.lifetime.start.p0(i64 8, ptr %9) #6
  %21 = load ptr, ptr %5, align 8, !tbaa !26
  %22 = getelementptr inbounds nuw %struct.AVFrame, ptr %21, i32 0, i32 0
  %23 = getelementptr inbounds [8 x ptr], ptr %22, i64 0, i64 0
  %24 = load ptr, ptr %23, align 8, !tbaa !84
  %25 = load i32, ptr %7, align 4, !tbaa !38
  %26 = load ptr, ptr %5, align 8, !tbaa !26
  %27 = getelementptr inbounds nuw %struct.AVFrame, ptr %26, i32 0, i32 1
  %28 = getelementptr inbounds [8 x i32], ptr %27, i64 0, i64 0
  %29 = load i32, ptr %28, align 8, !tbaa !38
  %30 = mul nsw i32 %25, %29
  %31 = sext i32 %30 to i64
  %32 = getelementptr inbounds i8, ptr %24, i64 %31
  store ptr %32, ptr %9, align 8, !tbaa !84
  call void @llvm.lifetime.start.p0(i64 8, ptr %10) #6
  %33 = load ptr, ptr %6, align 8, !tbaa !26
  %34 = getelementptr inbounds nuw %struct.AVFrame, ptr %33, i32 0, i32 0
  %35 = getelementptr inbounds [8 x ptr], ptr %34, i64 0, i64 0
  %36 = load ptr, ptr %35, align 8, !tbaa !84
  %37 = load i32, ptr %7, align 4, !tbaa !38
  %38 = load ptr, ptr %6, align 8, !tbaa !26
  %39 = getelementptr inbounds nuw %struct.AVFrame, ptr %38, i32 0, i32 1
  %40 = getelementptr inbounds [8 x i32], ptr %39, i64 0, i64 0
  %41 = load i32, ptr %40, align 8, !tbaa !38
  %42 = mul nsw i32 %37, %41
  %43 = sext i32 %42 to i64
  %44 = getelementptr inbounds i8, ptr %36, i64 %43
  store ptr %44, ptr %10, align 8, !tbaa !84
  call void @llvm.lifetime.start.p0(i64 4, ptr %11) #6
  store i32 0, ptr %11, align 4, !tbaa !38
  br label %45

45:                                               ; preds = %123, %20
  %46 = load i32, ptr %11, align 4, !tbaa !38
  %47 = load ptr, ptr %5, align 8, !tbaa !26
  %48 = getelementptr inbounds nuw %struct.AVFrame, ptr %47, i32 0, i32 3
  %49 = load i32, ptr %48, align 8, !tbaa !90
  %50 = icmp slt i32 %46, %49
  br i1 %50, label %52, label %51

51:                                               ; preds = %45
  store i32 5, ptr %8, align 4
  call void @llvm.lifetime.end.p0(i64 4, ptr %11) #6
  br label %126

52:                                               ; preds = %45
  call void @llvm.lifetime.start.p0(i64 4, ptr %12) #6
  store i32 0, ptr %12, align 4, !tbaa !38
  br label %53

53:                                               ; preds = %86, %52
  %54 = load i32, ptr %12, align 4, !tbaa !38
  %55 = icmp slt i32 %54, 3
  br i1 %55, label %57, label %56

56:                                               ; preds = %53
  store i32 8, ptr %8, align 4
  call void @llvm.lifetime.end.p0(i64 4, ptr %12) #6
  br label %89

57:                                               ; preds = %53
  %58 = load ptr, ptr %4, align 8, !tbaa !22
  %59 = getelementptr inbounds nuw %struct.NormalizeContext, ptr %58, i32 0, i32 17
  %60 = load i32, ptr %12, align 4, !tbaa !38
  %61 = sext i32 %60 to i64
  %62 = getelementptr inbounds [3 x [65536 x i16]], ptr %59, i64 0, i64 %61
  %63 = load ptr, ptr %9, align 8, !tbaa !84
  %64 = load ptr, ptr %4, align 8, !tbaa !22
  %65 = getelementptr inbounds nuw %struct.NormalizeContext, ptr %64, i32 0, i32 6
  %66 = load i32, ptr %12, align 4, !tbaa !38
  %67 = sext i32 %66 to i64
  %68 = getelementptr inbounds [4 x i8], ptr %65, i64 0, i64 %67
  %69 = load i8, ptr %68, align 1, !tbaa !60
  %70 = zext i8 %69 to i64
  %71 = getelementptr inbounds nuw i8, ptr %63, i64 %70
  %72 = load i8, ptr %71, align 1, !tbaa !60
  %73 = zext i8 %72 to i64
  %74 = getelementptr inbounds nuw [65536 x i16], ptr %62, i64 0, i64 %73
  %75 = load i16, ptr %74, align 2, !tbaa !67
  %76 = trunc i16 %75 to i8
  %77 = load ptr, ptr %10, align 8, !tbaa !84
  %78 = load ptr, ptr %4, align 8, !tbaa !22
  %79 = getelementptr inbounds nuw %struct.NormalizeContext, ptr %78, i32 0, i32 6
  %80 = load i32, ptr %12, align 4, !tbaa !38
  %81 = sext i32 %80 to i64
  %82 = getelementptr inbounds [4 x i8], ptr %79, i64 0, i64 %81
  %83 = load i8, ptr %82, align 1, !tbaa !60
  %84 = zext i8 %83 to i64
  %85 = getelementptr inbounds nuw i8, ptr %77, i64 %84
  store i8 %76, ptr %85, align 1, !tbaa !60
  br label %86

86:                                               ; preds = %57
  %87 = load i32, ptr %12, align 4, !tbaa !38
  %88 = add nsw i32 %87, 1
  store i32 %88, ptr %12, align 4, !tbaa !38
  br label %53, !llvm.loop !99

89:                                               ; preds = %56
  %90 = load ptr, ptr %4, align 8, !tbaa !22
  %91 = getelementptr inbounds nuw %struct.NormalizeContext, ptr %90, i32 0, i32 10
  %92 = load i32, ptr %91, align 4, !tbaa !53
  %93 = icmp eq i32 %92, 4
  br i1 %93, label %94, label %110

94:                                               ; preds = %89
  %95 = load ptr, ptr %9, align 8, !tbaa !84
  %96 = load ptr, ptr %4, align 8, !tbaa !22
  %97 = getelementptr inbounds nuw %struct.NormalizeContext, ptr %96, i32 0, i32 6
  %98 = getelementptr inbounds [4 x i8], ptr %97, i64 0, i64 3
  %99 = load i8, ptr %98, align 1, !tbaa !60
  %100 = zext i8 %99 to i64
  %101 = getelementptr inbounds nuw i8, ptr %95, i64 %100
  %102 = load i8, ptr %101, align 1, !tbaa !60
  %103 = load ptr, ptr %10, align 8, !tbaa !84
  %104 = load ptr, ptr %4, align 8, !tbaa !22
  %105 = getelementptr inbounds nuw %struct.NormalizeContext, ptr %104, i32 0, i32 6
  %106 = getelementptr inbounds [4 x i8], ptr %105, i64 0, i64 3
  %107 = load i8, ptr %106, align 1, !tbaa !60
  %108 = zext i8 %107 to i64
  %109 = getelementptr inbounds nuw i8, ptr %103, i64 %108
  store i8 %102, ptr %109, align 1, !tbaa !60
  br label %110

110:                                              ; preds = %94, %89
  %111 = load ptr, ptr %4, align 8, !tbaa !22
  %112 = getelementptr inbounds nuw %struct.NormalizeContext, ptr %111, i32 0, i32 11
  %113 = load i32, ptr %112, align 8, !tbaa !54
  %114 = load ptr, ptr %9, align 8, !tbaa !84
  %115 = sext i32 %113 to i64
  %116 = getelementptr inbounds i8, ptr %114, i64 %115
  store ptr %116, ptr %9, align 8, !tbaa !84
  %117 = load ptr, ptr %4, align 8, !tbaa !22
  %118 = getelementptr inbounds nuw %struct.NormalizeContext, ptr %117, i32 0, i32 11
  %119 = load i32, ptr %118, align 8, !tbaa !54
  %120 = load ptr, ptr %10, align 8, !tbaa !84
  %121 = sext i32 %119 to i64
  %122 = getelementptr inbounds i8, ptr %120, i64 %121
  store ptr %122, ptr %10, align 8, !tbaa !84
  br label %123

123:                                              ; preds = %110
  %124 = load i32, ptr %11, align 4, !tbaa !38
  %125 = add nsw i32 %124, 1
  store i32 %125, ptr %11, align 4, !tbaa !38
  br label %45, !llvm.loop !100

126:                                              ; preds = %51
  call void @llvm.lifetime.end.p0(i64 8, ptr %10) #6
  call void @llvm.lifetime.end.p0(i64 8, ptr %9) #6
  br label %127

127:                                              ; preds = %126
  %128 = load i32, ptr %7, align 4, !tbaa !38
  %129 = add nsw i32 %128, 1
  store i32 %129, ptr %7, align 4, !tbaa !38
  br label %13, !llvm.loop !101

130:                                              ; preds = %19
  ret void
}