; Function Attrs: nofree norecurse nosync nounwind memory(readwrite, inaccessiblemem: none) uwtable
define internal void @process(ptr noundef readonly captures(none) %0, ptr noundef readonly captures(none) %1, ptr noundef readonly captures(none) %2) #6 {
  %4 = getelementptr inbounds nuw i8, ptr %1, i64 108
  %5 = load i32, ptr %4, align 4, !tbaa !77
  %6 = icmp sgt i32 %5, 0
  br i1 %6, label %.lr.ph, label %._crit_edge40

.lr.ph:                                           ; preds = %3
  %7 = getelementptr inbounds nuw i8, ptr %1, i64 64
  %8 = getelementptr inbounds nuw i8, ptr %2, i64 64
  %9 = getelementptr inbounds nuw i8, ptr %1, i64 104
  %10 = getelementptr inbounds nuw i8, ptr %0, i64 192
  %11 = getelementptr inbounds nuw i8, ptr %0, i64 28
  %12 = getelementptr inbounds nuw i8, ptr %0, i64 68
  %13 = getelementptr inbounds nuw i8, ptr %0, i64 31
  %14 = getelementptr inbounds nuw i8, ptr %0, i64 72
  %15 = load i32, ptr %9, align 8, !tbaa !82
  %16 = icmp sgt i32 %15, 0
  br i1 %16, label %.lr.ph.split, label %._crit_edge40

._crit_edge40:                                    ; preds = %._crit_edge, %.lr.ph, %3
  ret void

.lr.ph.split:                                     ; preds = %.lr.ph, %._crit_edge
  %17 = phi i32 [ %30, %._crit_edge ], [ %5, %.lr.ph ]
  %18 = phi i32 [ %31, %._crit_edge ], [ %15, %.lr.ph ]
  %.03338 = phi i32 [ %32, %._crit_edge ], [ 0, %.lr.ph ]
  %19 = icmp sgt i32 %18, 0
  br i1 %19, label %.preheader.preheader, label %._crit_edge

.preheader.preheader:                             ; preds = %.lr.ph.split
  %20 = load ptr, ptr %2, align 8, !tbaa !76
  %21 = load i32, ptr %8, align 8, !tbaa !57
  %22 = mul nsw i32 %21, %.03338
  %23 = sext i32 %22 to i64
  %24 = getelementptr inbounds i8, ptr %20, i64 %23
  %25 = load ptr, ptr %1, align 8, !tbaa !76
  %26 = load i32, ptr %7, align 8, !tbaa !57
  %27 = mul nsw i32 %26, %.03338
  %28 = sext i32 %27 to i64
  %29 = getelementptr inbounds i8, ptr %25, i64 %28
  br label %.preheader

.preheader:                                       ; preds = %.preheader.preheader, %54
  %.03037 = phi i32 [ %59, %54 ], [ 0, %.preheader.preheader ]
  %.03136 = phi ptr [ %58, %54 ], [ %24, %.preheader.preheader ]
  %.03235 = phi ptr [ %57, %54 ], [ %29, %.preheader.preheader ]
  br label %37

._crit_edge.loopexit:                             ; preds = %54
  %.pre = load i32, ptr %4, align 4, !tbaa !77
  br label %._crit_edge

._crit_edge:                                      ; preds = %._crit_edge.loopexit, %.lr.ph.split
  %30 = phi i32 [ %.pre, %._crit_edge.loopexit ], [ %17, %.lr.ph.split ]
  %31 = phi i32 [ %60, %._crit_edge.loopexit ], [ %18, %.lr.ph.split ]
  %32 = add nuw nsw i32 %.03338, 1
  %33 = icmp slt i32 %32, %30
  br i1 %33, label %.lr.ph.split, label %._crit_edge40, !llvm.loop !92

34:                                               ; preds = %37
  %35 = load i32, ptr %12, align 4, !tbaa !69
  %36 = icmp eq i32 %35, 4
  br i1 %36, label %48, label %54

37:                                               ; preds = %.preheader, %37
  %indvars.iv = phi i64 [ 0, %.preheader ], [ %indvars.iv.next, %37 ]
  %38 = getelementptr inbounds nuw [4 x i8], ptr %11, i64 0, i64 %indvars.iv
  %39 = load i8, ptr %38, align 1, !tbaa !73
  %40 = zext i8 %39 to i64
  %41 = getelementptr inbounds nuw i8, ptr %.03235, i64 %40
  %42 = load i8, ptr %41, align 1, !tbaa !73
  %43 = zext i8 %42 to i64
  %44 = getelementptr inbounds nuw [3 x [65536 x i16]], ptr %10, i64 0, i64 %indvars.iv, i64 %43
  %45 = load i16, ptr %44, align 2, !tbaa !46
  %46 = trunc i16 %45 to i8
  %47 = getelementptr inbounds nuw i8, ptr %.03136, i64 %40
  store i8 %46, ptr %47, align 1, !tbaa !73
  %indvars.iv.next = add nuw nsw i64 %indvars.iv, 1
  %exitcond.not = icmp eq i64 %indvars.iv.next, 3
  br i1 %exitcond.not, label %34, label %37, !llvm.loop !93

48:                                               ; preds = %34
  %49 = load i8, ptr %13, align 1, !tbaa !73
  %50 = zext i8 %49 to i64
  %51 = getelementptr inbounds nuw i8, ptr %.03235, i64 %50
  %52 = load i8, ptr %51, align 1, !tbaa !73
  %53 = getelementptr inbounds nuw i8, ptr %.03136, i64 %50
  store i8 %52, ptr %53, align 1, !tbaa !73
  br label %54

54:                                               ; preds = %48, %34
  %55 = load i32, ptr %14, align 8, !tbaa !70
  %56 = sext i32 %55 to i64
  %57 = getelementptr inbounds i8, ptr %.03235, i64 %56
  %58 = getelementptr inbounds i8, ptr %.03136, i64 %56
  %59 = add nuw nsw i32 %.03037, 1
  %60 = load i32, ptr %9, align 8, !tbaa !82
  %61 = icmp slt i32 %59, %60
  br i1 %61, label %.preheader, label %._crit_edge.loopexit, !llvm.loop !94
}